Certificate:
    Data:
        Version: 3 (0x2)
        Serial Number: 2 (0x2)
        Signature Algorithm: sha256WithRSAEncryption
        Issuer: C=IN, ST=MH, L=PNQ, O=Golain, OU=dev, CN=CERTIFICATE AUTH
        Validity
            Not Before: Jan 12 11:52:12 2023 GMT
            Not After : Jan 12 11:52:12 2024 GMT
        Subject: C=IN, ST=MH, O=Golainb, OU=dev, CN=192.168.0.112
        Subject Public Key Info:
            Public Key Algorithm: rsaEncryption
                Public-Key: (2048 bit)
                Modulus:
                    00:aa:bf:f1:26:c8:85:eb:e3:c8:aa:33:82:22:f1:
                    14:ad:1a:3e:99:5a:34:66:1b:57:3e:57:b4:52:9a:
                    7f:72:0a:2a:d3:53:aa:fe:79:c2:cf:03:29:4d:75:
                    ef:ec:6f:77:eb:dc:cc:68:a8:8e:ff:b1:9f:c3:5c:
                    5f:90:53:d8:1c:6c:48:c9:72:c3:aa:9a:2e:93:04:
                    07:a4:91:d7:09:a3:f0:ec:69:9e:10:14:18:a3:4c:
                    0b:cf:d5:22:b8:66:fe:d5:1e:59:9c:ba:5d:ed:bb:
                    35:4d:c8:aa:42:87:e0:af:03:8a:6f:b1:aa:87:d8:
                    a4:97:2f:fe:1b:5b:97:1e:9b:7f:5c:72:ea:53:b1:
                    e9:94:56:b1:75:84:5a:d5:8b:b8:c5:50:d9:a0:dd:
                    db:ec:36:ff:56:f3:fc:d3:83:6e:de:dd:82:59:81:
                    fa:4c:e4:0e:2d:3d:11:38:31:e2:7b:0a:87:cf:7f:
                    f2:38:a2:b2:4f:8e:c5:a3:1a:93:9e:93:e1:5e:96:
                    25:2b:ca:30:e6:41:69:c9:91:ea:1e:c0:d3:30:ce:
                    a5:60:e6:72:38:bb:a8:5d:bf:7e:99:da:b8:82:11:
                    49:0e:2c:98:56:ba:97:d4:36:d8:fe:0e:4b:9b:14:
                    15:5a:24:2f:0f:9f:1c:c0:a5:c3:30:e7:26:31:e6:
                    b1:fd
                Exponent: 65537 (0x10001)
        X509v3 extensions:
            X509v3 Basic Constraints: 
                CA:FALSE
            X509v3 Subject Key Identifier: 
                C1:57:49:30:42:77:EA:BC:87:03:F0:FC:64:EF:92:CE:F6:53:FE:F8
            X509v3 Authority Key Identifier: 
                B5:59:EE:E2:E6:18:1F:6C:D0:3D:01:72:20:12:92:5B:B7:3A:CD:31
    Signature Algorithm: sha256WithRSAEncryption
    Signature Value:
        79:ae:fa:19:b3:aa:64:d5:0b:99:ba:49:c3:43:94:dd:31:1b:
        95:61:d2:88:60:3b:2d:31:86:cf:f2:e6:d2:aa:fe:47:19:b1:
        99:e0:0e:6f:6c:31:95:37:21:20:ac:a9:6f:94:65:bc:ed:60:
        fc:77:e6:9f:69:68:9c:21:75:be:33:ce:ba:c0:0b:32:d7:54:
        73:84:83:a6:08:e6:1b:df:ec:1b:da:09:ee:d8:f7:02:a8:7a:
        d2:0a:56:45:7d:ec:08:d5:13:c3:b6:09:ce:e5:4f:74:1d:24:
        e7:ea:b0:3e:a9:be:45:28:a1:f6:df:c0:48:98:de:d8:ab:f2:
        39:38:1e:33:af:94:b0:fe:5d:8f:02:a9:36:19:99:2d:86:bf:
        ed:dd:24:36:63:20:6c:14:56:af:a1:f0:46:ba:38:c0:13:6f:
        7a:34:99:8d:e5:44:e2:70:91:4d:ce:a3:66:3a:40:4e:60:7f:
        df:9d:ea:be:f3:55:47:23:e4:f9:7f:72:2a:b1:69:b5:4a:88:
        cb:b7:9d:1a:26:6b:da:2c:46:75:52:85:fc:bc:2e:4a:4d:12:
        88:2d:12:86:c1:46:a4:9d:24:68:6b:cb:a2:be:3f:0f:2a:69:
        c8:65:10:e3:34:83:03:d7:74:45:5f:8a:4b:90:2c:cd:05:c7:
        03:26:c6:74
-----BEGIN CERTIFICATE-----
MIIDfDCCAmSgAwIBAgIBAjANBgkqhkiG9w0BAQsFADBiMQswCQYDVQQGEwJJTjEL
MAkGA1UECAwCTUgxDDAKBgNVBAcMA1BOUTEPMA0GA1UECgwGR29sYWluMQwwCgYD
VQQLDANkZXYxGTAXBgNVBAMMEENFUlRJRklDQVRFIEFVVEgwHhcNMjMwMTEyMTE1
MjEyWhcNMjQwMTEyMTE1MjEyWjBSMQswCQYDVQQGEwJJTjELMAkGA1UECAwCTUgx
EDAOBgNVBAoMB0dvbGFpbmIxDDAKBgNVBAsMA2RldjEWMBQGA1UEAwwNMTkyLjE2
OC4wLjExMjCCASIwDQYJKoZIhvcNAQEBBQADggEPADCCAQoCggEBAKq/8SbIhevj
yKozgiLxFK0aPplaNGYbVz5XtFKaf3IKKtNTqv55ws8DKU117+xvd+vczGiojv+x
n8NcX5BT2BxsSMlyw6qaLpMEB6SR1wmj8OxpnhAUGKNMC8/VIrhm/tUeWZy6Xe27
NU3IqkKH4K8Dim+xqofYpJcv/htblx6bf1xy6lOx6ZRWsXWEWtWLuMVQ2aDd2+w2
/1bz/NODbt7dglmB+kzkDi09ETgx4nsKh89/8jiisk+OxaMak56T4V6WJSvKMOZB
acmR6h7A0zDOpWDmcji7qF2/fpnauIIRSQ4smFa6l9Q22P4OS5sUFVokLw+fHMCl
wzDnJjHmsf0CAwEAAaNNMEswCQYDVR0TBAIwADAdBgNVHQ4EFgQUwVdJMEJ36ryH
A/D8ZO+SzvZT/vgwHwYDVR0jBBgwFoAUtVnu4uYYH2zQPQFyIBKSW7c6zTEwDQYJ
KoZIhvcNAQELBQADggEBAHmu+hmzqmTVC5m6ScNDlN0xG5Vh0ohgOy0xhs/y5tKq
/kcZsZngDm9sMZU3ISCsqW+UZbztYPx35p9paJwhdb4zzrrACzLXVHOEg6YI5hvf
7BvaCe7Y9wKoetIKVkV97AjVE8O2Cc7lT3QdJOfqsD6pvkUoofbfwEiY3tir8jk4
HjOvlLD+XY8CqTYZmS2Gv+3dJDZjIGwUVq+h8Ea6OMATb3o0mY3lROJwkU3Oo2Y6
QE5gf9+d6r7zVUcj5Pl/ciqxabVKiMu3nRoma9osRnVShfy8LkpNEogtEobBRqSd
JGhry6K+Pw8qachlEOM0gwPXdEVfikuQLM0FxwMmxnQ=
-----END CERTIFICATE-----

